target datalayout = "e-m:e-p270:32:32-p271:32:32-p272:64:64-i64:64-i128:128-f80:128-n8:16:32:64-S128"
target triple = "x86_64-pc-linux-gnu"

%struct.Map_SuperLibStruct_t_ = type { ptr, ptr, i32, i32, i32, i32, i32, ptr, ptr, ptr, [6 x [2 x i32]], [2 x i32], ptr, %struct.Map_TimeStruct_t_, float, float, ptr, ptr, ptr, ptr }
%struct.Map_TimeStruct_t_ = type { float, float, float }
%struct.Map_HashTableStruct_t_ = type { ptr, i32, i32, ptr }
%struct.Map_HashEntryStruct_t_ = type { [2 x i32], i32, ptr, ptr }

; Function Attrs: nounwind uwtable
define ptr @Map_SuperTableLookupC(ptr noundef %0, ptr noundef %1) #0 {
  %3 = alloca ptr, align 8
  %4 = alloca ptr, align 8
  %5 = alloca ptr, align 8
  %6 = alloca ptr, align 8
  %7 = alloca i32, align 4
  store ptr %0, ptr %4, align 8
  store ptr %1, ptr %5, align 8
  %8 = load ptr, ptr %5, align 8
  %9 = getelementptr inbounds i32, ptr %8, i64 0
  %10 = load i32, ptr %9, align 4
  %11 = load ptr, ptr %5, align 8
  %12 = getelementptr inbounds i32, ptr %11, i64 1
  %13 = load i32, ptr %12, align 4
  %14 = mul i32 2003, %13
  %15 = add i32 %10, %14
  %16 = load ptr, ptr %4, align 8
  %17 = getelementptr inbounds %struct.Map_SuperLibStruct_t_, ptr %16, i32 0, i32 8
  %18 = load ptr, ptr %17, align 8
  %19 = getelementptr inbounds %struct.Map_HashTableStruct_t_, ptr %18, i32 0, i32 1
  %20 = load i32, ptr %19, align 8
  %21 = urem i32 %15, %20
  store i32 %21, ptr %7, align 4
  %22 = load ptr, ptr %4, align 8
  %23 = getelementptr inbounds %struct.Map_SuperLibStruct_t_, ptr %22, i32 0, i32 8
  %24 = load ptr, ptr %23, align 8
  %25 = getelementptr inbounds %struct.Map_HashTableStruct_t_, ptr %24, i32 0, i32 0
  %26 = load ptr, ptr %25, align 8
  %27 = load i32, ptr %7, align 4
  %28 = zext i32 %27 to i64
  %29 = getelementptr inbounds ptr, ptr %26, i64 %28
  %30 = load ptr, ptr %29, align 8
  store ptr %30, ptr %6, align 8
  br label %31

31:                                               ; preds = %57, %2
  %32 = load ptr, ptr %6, align 8
  %33 = icmp ne ptr %32, null
  br i1 %33, label %34, label %61

34:                                               ; preds = %31
  %35 = load ptr, ptr %6, align 8
  %36 = getelementptr inbounds %struct.Map_HashEntryStruct_t_, ptr %35, i32 0, i32 0
  %37 = getelementptr inbounds [2 x i32], ptr %36, i64 0, i64 0
  %38 = load i32, ptr %37, align 8
  %39 = load ptr, ptr %5, align 8
  %40 = getelementptr inbounds i32, ptr %39, i64 0
  %41 = load i32, ptr %40, align 4
  %42 = icmp eq i32 %38, %41
  br i1 %42, label %43, label %56

43:                                               ; preds = %34
  %44 = load ptr, ptr %6, align 8
  %45 = getelementptr inbounds %struct.Map_HashEntryStruct_t_, ptr %44, i32 0, i32 0
  %46 = getelementptr inbounds [2 x i32], ptr %45, i64 0, i64 1
  %47 = load i32, ptr %46, align 4
  %48 = load ptr, ptr %5, align 8
  %49 = getelementptr inbounds i32, ptr %48, i64 1
  %50 = load i32, ptr %49, align 4
  %51 = icmp eq i32 %47, %50
  br i1 %51, label %52, label %56

52:                                               ; preds = %43
  %53 = load ptr, ptr %6, align 8
  %54 = getelementptr inbounds %struct.Map_HashEntryStruct_t_, ptr %53, i32 0, i32 2
  %55 = load ptr, ptr %54, align 8
  store ptr %55, ptr %3, align 8
  br label %62

56:                                               ; preds = %43, %34
  br label %57

57:                                               ; preds = %56
  %58 = load ptr, ptr %6, align 8
  %59 = getelementptr inbounds %struct.Map_HashEntryStruct_t_, ptr %58, i32 0, i32 3
  %60 = load ptr, ptr %59, align 8
  store ptr %60, ptr %6, align 8
  br label %31, !llvm.loop !11

61:                                               ; preds = %31
  store ptr null, ptr %3, align 8
  br label %62

62:                                               ; preds = %61, %52
  %63 = load ptr, ptr %3, align 8
  ret ptr %63
}