; Function Attrs: nofree norecurse nosync nounwind memory(read, inaccessiblemem: none) uwtable
define ptr @Map_SuperTableLookupC(ptr noundef readonly captures(none) %0, ptr noundef readonly captures(none) %1) local_unnamed_addr #7 {
  %3 = load i32, ptr %1, align 4
  %4 = getelementptr inbounds nuw i8, ptr %1, i64 4
  %5 = load i32, ptr %4, align 4
  %6 = mul i32 %5, 2003
  %7 = add i32 %6, %3
  %8 = getelementptr inbounds nuw i8, ptr %0, i64 48
  %9 = load ptr, ptr %8, align 8
  %10 = getelementptr inbounds nuw i8, ptr %9, i64 8
  %11 = load i32, ptr %10, align 8
  %12 = urem i32 %7, %11
  %13 = load ptr, ptr %9, align 8
  %14 = zext i32 %12 to i64
  %15 = getelementptr inbounds nuw ptr, ptr %13, i64 %14
  %.01214 = load ptr, ptr %15, align 8
  %.not15 = icmp eq ptr %.01214, null
  br i1 %.not15, label %.loopexit, label %.lr.ph

.lr.ph:                                           ; preds = %2, %25
  %.01216 = phi ptr [ %.012, %25 ], [ %.01214, %2 ]
  %16 = load i32, ptr %.01216, align 8
  %17 = icmp eq i32 %16, %3
  br i1 %17, label %18, label %25

18:                                               ; preds = %.lr.ph
  %19 = getelementptr inbounds nuw i8, ptr %.01216, i64 4
  %20 = load i32, ptr %19, align 4
  %21 = icmp eq i32 %20, %5
  br i1 %21, label %22, label %25

22:                                               ; preds = %18
  %23 = getelementptr inbounds nuw i8, ptr %.01216, i64 16
  %24 = load ptr, ptr %23, align 8
  br label %.loopexit

25:                                               ; preds = %.lr.ph, %18
  %26 = getelementptr inbounds nuw i8, ptr %.01216, i64 24
  %.012 = load ptr, ptr %26, align 8
  %.not = icmp eq ptr %.012, null
  br i1 %.not, label %.loopexit, label %.lr.ph, !llvm.loop !11

.loopexit:                                        ; preds = %25, %2, %22
  %.0 = phi ptr [ %24, %22 ], [ null, %2 ], [ null, %25 ]
  ret ptr %.0
}